; Function Attrs: mustprogress nofree norecurse nosync nounwind willreturn memory(read, inaccessiblemem: none) uwtable
define zeroext i1 @b2Chain_IsValid(i64 %0) local_unnamed_addr #11 {
  %.sroa.0.0.extract.trunc = trunc i64 %0 to i32
  %.sroa.6.0.extract.shift = lshr i64 %0, 48
  %2 = and i64 %0, 280925220896768
  %.not16 = icmp eq i64 %2, 0
  br i1 %.not16, label %3, label %27

3:                                                ; preds = %1
  %.sroa.2.0.extract.shift = lshr i64 %0, 32
  %4 = and i64 %.sroa.2.0.extract.shift, 127
  %5 = getelementptr inbounds nuw %struct.b2World, ptr @b2_worlds, i64 %4
  %6 = getelementptr inbounds nuw i8, ptr %5, i64 1780
  %7 = load i16, ptr %6, align 4, !tbaa !83
  %8 = trunc i64 %.sroa.2.0.extract.shift to i16
  %.not = icmp eq i16 %7, %8
  br i1 %.not, label %9, label %27

9:                                                ; preds = %3
  %10 = add nuw nsw i64 %0, 4294967295
  %11 = icmp slt i32 %.sroa.0.0.extract.trunc, 1
  br i1 %11, label %27, label %12

12:                                               ; preds = %9
  %13 = getelementptr inbounds nuw i8, ptr %5, i64 1280
  %14 = load i32, ptr %13, align 16, !tbaa !158
  %.not17.not = icmp slt i32 %14, %.sroa.0.0.extract.trunc
  br i1 %.not17.not, label %27, label %15

15:                                               ; preds = %12
  %16 = getelementptr inbounds nuw i8, ptr %5, i64 1272
  %17 = load ptr, ptr %16, align 8, !tbaa !161
  %18 = and i64 %10, 4294967295
  %19 = getelementptr inbounds nuw %struct.b2ChainShape, ptr %17, i64 %18
  %20 = load i32, ptr %19, align 8, !tbaa !162
  %21 = icmp eq i32 %20, -1
  br i1 %21, label %27, label %22

22:                                               ; preds = %15
  %23 = getelementptr inbounds nuw i8, ptr %19, i64 40
  %24 = load i16, ptr %23, align 8, !tbaa !373
  %25 = zext i16 %24 to i64
  %26 = icmp eq i64 %.sroa.6.0.extract.shift, %25
  br label %27

27:                                               ; preds = %3, %22, %15, %9, %12, %1
  %.0 = phi i1 [ false, %1 ], [ false, %3 ], [ false, %12 ], [ false, %9 ], [ %26, %22 ], [ false, %15 ]
  ret i1 %.0
}